; Function Attrs: mustprogress uwtable
define internal fastcc noundef zeroext i1 @"_ZNO8pybind116detail15argument_loaderIJRKSt5dequeIiSaIiEEEE4callIbNS0_9void_typeERZ18test_submodule_stlRNS_7module_EE3$_6EENSt9enable_ifIXntsr3std7is_voidIT_EE5valueESF_E4typeEOT1_"(ptr noundef nonnull align 8 dereferenceable(80) %0) unnamed_addr #1 align 2 {
  %2 = getelementptr inbounds i8, ptr %0, i64 48
  %3 = getelementptr inbounds i8, ptr %0, i64 16
  %4 = getelementptr inbounds i8, ptr %0, i64 72
  %5 = load ptr, ptr %4, align 8
  %6 = getelementptr inbounds i8, ptr %0, i64 40
  %7 = load ptr, ptr %6, align 8
  %8 = ptrtoint ptr %5 to i64
  %9 = ptrtoint ptr %7 to i64
  %10 = sub i64 %8, %9
  %11 = ashr exact i64 %10, 3
  %12 = icmp ne ptr %5, null
  %.neg.i.i.i.i.i.i = sext i1 %12 to i64
  %13 = add nsw i64 %11, %.neg.i.i.i.i.i.i
  %14 = shl nsw i64 %13, 7
  %15 = load ptr, ptr %2, align 8
  %16 = getelementptr inbounds i8, ptr %0, i64 56
  %17 = load ptr, ptr %16, align 8
  %18 = ptrtoint ptr %15 to i64
  %19 = ptrtoint ptr %17 to i64
  %20 = sub i64 %18, %19
  %21 = ashr exact i64 %20, 2
  %22 = add nsw i64 %14, %21
  %23 = getelementptr inbounds i8, ptr %0, i64 32
  %24 = load ptr, ptr %23, align 8
  %25 = load ptr, ptr %3, align 8
  %26 = ptrtoint ptr %24 to i64
  %27 = ptrtoint ptr %25 to i64
  %28 = sub i64 %26, %27
  %29 = ashr exact i64 %28, 2
  %30 = add nsw i64 %22, %29
  %.not.i.i.not.i.i = icmp eq i64 %30, 0
  br i1 %.not.i.i.not.i.i, label %31, label %_ZNKSt5dequeIiSaIiEE14_M_range_checkEm.exit.i.i.i

31:                                               ; preds = %1
  %32 = tail call noundef i64 @_ZNKSt5dequeIiSaIiEE4sizeEv(ptr noundef nonnull align 8 dereferenceable(80) %0) #27
  tail call void (ptr, ...) @_ZSt24__throw_out_of_range_fmtPKcz(ptr noundef nonnull @.str.209, i64 noundef 0, i64 noundef %32) #31
  unreachable

_ZNKSt5dequeIiSaIiEE14_M_range_checkEm.exit.i.i.i: ; preds = %1
  %33 = getelementptr inbounds i8, ptr %0, i64 24
  %34 = load ptr, ptr %33, align 8, !noalias !1274
  %35 = ptrtoint ptr %34 to i64
  %36 = sub i64 %27, %35
  %37 = ashr exact i64 %36, 2
  %38 = icmp sgt i64 %37, -1
  br i1 %38, label %39, label %43

39:                                               ; preds = %_ZNKSt5dequeIiSaIiEE14_M_range_checkEm.exit.i.i.i
  %40 = icmp ult i64 %37, 128
  br i1 %40, label %_ZNKSt5dequeIiSaIiEE2atEm.exit.i.i, label %41

41:                                               ; preds = %39
  %42 = lshr i64 %37, 7
  br label %45

43:                                               ; preds = %_ZNKSt5dequeIiSaIiEE14_M_range_checkEm.exit.i.i.i
  %44 = ashr i64 %36, 9
  br label %45

45:                                               ; preds = %43, %41
  %46 = phi i64 [ %42, %41 ], [ %44, %43 ]
  %47 = getelementptr inbounds ptr, ptr %7, i64 %46
  %48 = load ptr, ptr %47, align 8, !noalias !1419
  %49 = shl nsw i64 %46, 7
  %50 = sub nsw i64 %37, %49
  %51 = getelementptr inbounds i32, ptr %48, i64 %50
  br label %_ZNKSt5dequeIiSaIiEE2atEm.exit.i.i

_ZNKSt5dequeIiSaIiEE2atEm.exit.i.i:               ; preds = %45, %39
  %storemerge.i.i.i.i.i.i.i = phi ptr [ %51, %45 ], [ %25, %39 ]
  %52 = load i32, ptr %storemerge.i.i.i.i.i.i.i, align 4
  %53 = icmp eq i32 %52, 1
  br i1 %53, label %54, label %"_ZNO8pybind116detail15argument_loaderIJRKSt5dequeIiSaIiEEEE9call_implIbRZ18test_submodule_stlRNS_7module_EE3$_6JLm0EENS0_9void_typeEEET_OT0_St16integer_sequenceImJXspT1_EEEOT2_.exit"

54:                                               ; preds = %_ZNKSt5dequeIiSaIiEE2atEm.exit.i.i
  %.not.i.i3.not.i.i = icmp eq i64 %30, 1
  br i1 %.not.i.i3.not.i.i, label %55, label %_ZNKSt5dequeIiSaIiEE14_M_range_checkEm.exit.i4.i.i

55:                                               ; preds = %54
  %56 = tail call noundef i64 @_ZNKSt5dequeIiSaIiEE4sizeEv(ptr noundef nonnull align 8 dereferenceable(80) %0) #27
  tail call void (ptr, ...) @_ZSt24__throw_out_of_range_fmtPKcz(ptr noundef nonnull @.str.209, i64 noundef 1, i64 noundef %56) #31
  unreachable

_ZNKSt5dequeIiSaIiEE14_M_range_checkEm.exit.i4.i.i: ; preds = %54
  %57 = add nsw i64 %37, 1
  %58 = icmp sgt i64 %37, -2
  br i1 %58, label %59, label %65

59:                                               ; preds = %_ZNKSt5dequeIiSaIiEE14_M_range_checkEm.exit.i4.i.i
  %60 = icmp ult i64 %57, 128
  br i1 %60, label %61, label %63

61:                                               ; preds = %59
  %62 = getelementptr inbounds i8, ptr %25, i64 4
  br label %_ZNKSt5dequeIiSaIiEE2atEm.exit6.i.i

63:                                               ; preds = %59
  %64 = lshr i64 %57, 7
  br label %67

65:                                               ; preds = %_ZNKSt5dequeIiSaIiEE14_M_range_checkEm.exit.i4.i.i
  %66 = ashr i64 %57, 7
  br label %67

67:                                               ; preds = %65, %63
  %68 = phi i64 [ %64, %63 ], [ %66, %65 ]
  %69 = getelementptr inbounds ptr, ptr %7, i64 %68
  %70 = load ptr, ptr %69, align 8, !noalias !1422
  %71 = shl nsw i64 %68, 7
  %72 = sub nsw i64 %57, %71
  %73 = getelementptr inbounds i32, ptr %70, i64 %72
  br label %_ZNKSt5dequeIiSaIiEE2atEm.exit6.i.i

_ZNKSt5dequeIiSaIiEE2atEm.exit6.i.i:              ; preds = %67, %61
  %storemerge.i.i.i.i.i5.i.i = phi ptr [ %73, %67 ], [ %62, %61 ]
  %74 = load i32, ptr %storemerge.i.i.i.i.i5.i.i, align 4
  %75 = icmp eq i32 %74, 2
  br label %"_ZNO8pybind116detail15argument_loaderIJRKSt5dequeIiSaIiEEEE9call_implIbRZ18test_submodule_stlRNS_7module_EE3$_6JLm0EENS0_9void_typeEEET_OT0_St16integer_sequenceImJXspT1_EEEOT2_.exit"

"_ZNO8pybind116detail15argument_loaderIJRKSt5dequeIiSaIiEEEE9call_implIbRZ18test_submodule_stlRNS_7module_EE3$_6JLm0EENS0_9void_typeEEET_OT0_St16integer_sequenceImJXspT1_EEEOT2_.exit": ; preds = %_ZNKSt5dequeIiSaIiEE2atEm.exit.i.i, %_ZNKSt5dequeIiSaIiEE2atEm.exit6.i.i
  %76 = phi i1 [ false, %_ZNKSt5dequeIiSaIiEE2atEm.exit.i.i ], [ %75, %_ZNKSt5dequeIiSaIiEE2atEm.exit6.i.i ]
  ret i1 %76
}